target datalayout = "e-m:e-p270:32:32-p271:32:32-p272:64:64-i64:64-i128:128-f80:128-n8:16:32:64-S128"
target triple = "x86_64-pc-linux-gnu"

%struct.wl_list = type { ptr, ptr }
%struct.SDL_WaylandPenTool = type { i32, %struct.SDL_PenInfo, ptr, ptr, float, float, i8, [7 x float], i32, i32, [3 x i32], %struct.wl_list }
%struct.SDL_PenInfo = type { i32, float, i32, i32, i32 }

; Function Attrs: nounwind uwtable
define internal void @tablet_tool_handle_button(ptr noundef %0, ptr noundef %1, i32 noundef %2, i32 noundef %3, i32 noundef %4) #0 {
  %6 = alloca ptr, align 8
  %7 = alloca ptr, align 8
  %8 = alloca i32, align 4
  %9 = alloca i32, align 4
  %10 = alloca i32, align 4
  %11 = alloca ptr, align 8
  %12 = alloca i32, align 4
  %13 = alloca i32, align 4
  store ptr %0, ptr %6, align 8
  store ptr %1, ptr %7, align 8
  store i32 %2, ptr %8, align 4
  store i32 %3, ptr %9, align 4
  store i32 %4, ptr %10, align 4
  call void @llvm.lifetime.start.p0(i64 8, ptr %11) #10
  %14 = load ptr, ptr %6, align 8
  store ptr %14, ptr %11, align 8
  call void @llvm.lifetime.start.p0(i64 4, ptr %12) #10
  %15 = load i32, ptr %9, align 4
  switch i32 %15, label %19 [
    i32 331, label %16
    i32 332, label %17
    i32 329, label %18
  ]

16:                                               ; preds = %5
  store i32 1, ptr %12, align 4
  br label %20

17:                                               ; preds = %5
  store i32 2, ptr %12, align 4
  br label %20

18:                                               ; preds = %5
  store i32 3, ptr %12, align 4
  br label %20

19:                                               ; preds = %5
  store i32 1, ptr %13, align 4
  br label %33

20:                                               ; preds = %18, %17, %16
  br label %21

21:                                               ; preds = %20
  br label %22

22:                                               ; preds = %21
  br label %23

23:                                               ; preds = %22
  %24 = load i32, ptr %10, align 4
  %25 = icmp eq i32 %24, 1
  %26 = select i1 %25, i32 1, i32 0
  %27 = load ptr, ptr %11, align 8
  %28 = getelementptr inbounds nuw %struct.SDL_WaylandPenTool, ptr %27, i32 0, i32 10
  %29 = load i32, ptr %12, align 4
  %30 = sub nsw i32 %29, 1
  %31 = sext i32 %30 to i64
  %32 = getelementptr inbounds [3 x i32], ptr %28, i64 0, i64 %31
  store i32 %26, ptr %32, align 4
  store i32 0, ptr %13, align 4
  br label %33

33:                                               ; preds = %23, %19
  call void @llvm.lifetime.end.p0(i64 4, ptr %12) #10
  call void @llvm.lifetime.end.p0(i64 8, ptr %11) #10
  %34 = load i32, ptr %13, align 4
  switch i32 %34, label %36 [
    i32 0, label %35
    i32 1, label %35
  ]

35:                                               ; preds = %33, %33
  ret void

36:                                               ; preds = %33
  unreachable
}