; Function Attrs: mustprogress nofree norecurse nosync nounwind willreturn memory(argmem: write) uwtable
define internal void @tablet_tool_handle_button(ptr noundef writeonly captures(none) %0, ptr readnone captures(none) %1, i32 %2, i32 noundef %3, i32 noundef %4) #5 {
  switch i32 %3, label %13 [
    i32 331, label %8
    i32 332, label %6
    i32 329, label %7
  ]

6:                                                ; preds = %5
  br label %8

7:                                                ; preds = %5
  br label %8

8:                                                ; preds = %5, %6, %7
  %.0 = phi i64 [ 2, %7 ], [ 1, %6 ], [ 0, %5 ]
  %9 = icmp eq i32 %4, 1
  %10 = zext i1 %9 to i32
  %11 = getelementptr inbounds nuw i8, ptr %0, i64 88
  %12 = getelementptr inbounds nuw [3 x i32], ptr %11, i64 0, i64 %.0
  store i32 %10, ptr %12, align 4
  br label %13

13:                                               ; preds = %5, %8
  ret void
}